target datalayout = "e-m:e-p270:32:32-p271:32:32-p272:64:64-i64:64-i128:128-f80:128-n8:16:32:64-S128"
target triple = "x86_64-pc-linux-gnu"

; Function Attrs: mustprogress nounwind uwtable
define linkonce_odr hidden noundef ptr @_ZNK4LIEF6Object2asINS_5MachO11LoadCommandEEENSt11add_pointerINSt9add_constINSt5decayIT_E4typeEE4typeEE4typeEv(ptr noundef nonnull align 8 dereferenceable(8) %0) #0 comdat align 2 {
  %2 = alloca ptr, align 8
  store ptr %0, ptr %2, align 8
  %3 = load ptr, ptr %2, align 8
  ret ptr %3
}

; Function Attrs: mustprogress uwtable
define void @_ZN4LIEF5MachO4Hash5visitERKNS0_13SymbolCommandE(ptr noundef nonnull align 8 dereferenceable(64) %0, ptr noundef nonnull align 8 dereferenceable(112) %1) unnamed_addr #3 align 2 {
  %3 = alloca ptr, align 8
  %4 = alloca ptr, align 8
  store ptr %0, ptr %3, align 8
  store ptr %1, ptr %4, align 8
  %5 = load ptr, ptr %3, align 8
  %6 = load ptr, ptr %4, align 8
  %7 = call noundef ptr @_ZNK4LIEF6Object2asINS_5MachO11LoadCommandEEENSt11add_pointerINSt9add_constINSt5decayIT_E4typeEE4typeEE4typeEv(ptr noundef nonnull align 8 dereferenceable(8) %6)
  %8 = load ptr, ptr %5, align 8
  %9 = getelementptr inbounds ptr, ptr %8, i64 109
  %10 = load ptr, ptr %9, align 8
  call void %10(ptr noundef nonnull align 8 dereferenceable(64) %5, ptr noundef nonnull align 8 dereferenceable(56) %7)
  %11 = load ptr, ptr %4, align 8
  %12 = call noundef i32 @_ZNK4LIEF5MachO13SymbolCommand13symbol_offsetEv(ptr noundef nonnull align 8 dereferenceable(112) %11)
  %13 = zext i32 %12 to i64
  %14 = load ptr, ptr %5, align 8
  %15 = getelementptr inbounds ptr, ptr %14, i64 166
  %16 = load ptr, ptr %15, align 8
  %17 = call noundef nonnull align 8 dereferenceable(64) ptr %16(ptr noundef nonnull align 8 dereferenceable(64) %5, i64 noundef %13)
  %18 = load ptr, ptr %4, align 8
  %19 = call noundef i32 @_ZNK4LIEF5MachO13SymbolCommand16numberof_symbolsEv(ptr noundef nonnull align 8 dereferenceable(112) %18)
  %20 = zext i32 %19 to i64
  %21 = load ptr, ptr %5, align 8
  %22 = getelementptr inbounds ptr, ptr %21, i64 166
  %23 = load ptr, ptr %22, align 8
  %24 = call noundef nonnull align 8 dereferenceable(64) ptr %23(ptr noundef nonnull align 8 dereferenceable(64) %5, i64 noundef %20)
  %25 = load ptr, ptr %4, align 8
  %26 = call noundef i32 @_ZNK4LIEF5MachO13SymbolCommand14strings_offsetEv(ptr noundef nonnull align 8 dereferenceable(112) %25)
  %27 = zext i32 %26 to i64
  %28 = load ptr, ptr %5, align 8
  %29 = getelementptr inbounds ptr, ptr %28, i64 166
  %30 = load ptr, ptr %29, align 8
  %31 = call noundef nonnull align 8 dereferenceable(64) ptr %30(ptr noundef nonnull align 8 dereferenceable(64) %5, i64 noundef %27)
  %32 = load ptr, ptr %4, align 8
  %33 = call noundef i32 @_ZNK4LIEF5MachO13SymbolCommand12strings_sizeEv(ptr noundef nonnull align 8 dereferenceable(112) %32)
  %34 = zext i32 %33 to i64
  %35 = load ptr, ptr %5, align 8
  %36 = getelementptr inbounds ptr, ptr %35, i64 166
  %37 = load ptr, ptr %36, align 8
  %38 = call noundef nonnull align 8 dereferenceable(64) ptr %37(ptr noundef nonnull align 8 dereferenceable(64) %5, i64 noundef %34)
  ret void
}